; Function Attrs: mustprogress uwtable
define void @_ZN7testing8internal19UniversalPrintArrayEPKDimPSo(ptr noundef readonly captures(none) %0, i64 noundef %1, ptr noundef %2) local_unnamed_addr #3 {
  %.not.i = icmp eq i64 %1, 0
  br i1 %.not.i, label %10, label %4

4:                                                ; preds = %3
  %5 = add i64 %1, -1
  %6 = getelementptr inbounds nuw i32, ptr %0, i64 %5
  %7 = load i32, ptr %6, align 4, !tbaa !917
  %8 = icmp eq i32 %7, 0
  br i1 %8, label %9, label %10

9:                                                ; preds = %4
  tail call fastcc void @_ZN7testing8internalL20PrintCharsAsStringToIDiEENS0_10CharFormatEPKT_mPSo(ptr noundef nonnull readonly %0, i64 noundef %5, ptr noundef %2)
  br label %_ZN7testing8internalL23UniversalPrintCharArrayIDiEEvPKT_mPSo.exit

10:                                               ; preds = %4, %3
  tail call fastcc void @_ZN7testing8internalL20PrintCharsAsStringToIDiEENS0_10CharFormatEPKT_mPSo(ptr noundef readonly %0, i64 noundef %1, ptr noundef %2)
  %11 = tail call noundef nonnull align 8 dereferenceable(8) ptr @_ZSt16__ostream_insertIcSt11char_traitsIcEERSt13basic_ostreamIT_T0_ES6_PKS3_l(ptr noundef nonnull align 8 dereferenceable(8) %2, ptr noundef nonnull @.str.532, i64 noundef 21)
  br label %_ZN7testing8internalL23UniversalPrintCharArrayIDiEEvPKT_mPSo.exit

_ZN7testing8internalL23UniversalPrintCharArrayIDiEEvPKT_mPSo.exit: ; preds = %9, %10
  ret void
}